target datalayout = "e-m:e-p270:32:32-p271:32:32-p272:64:64-i64:64-i128:128-f80:128-n8:16:32:64-S128"
target triple = "x86_64-pc-linux-gnu"

; Function Attrs: nounwind uwtable
define i32 @av_match_list(ptr noundef %0, ptr noundef %1, i8 noundef signext %2) #0 {
  %4 = alloca i32, align 4
  %5 = alloca ptr, align 8
  %6 = alloca ptr, align 8
  %7 = alloca i8, align 1
  %8 = alloca ptr, align 8
  %9 = alloca ptr, align 8
  %10 = alloca i32, align 4
  %11 = alloca i32, align 4
  store ptr %0, ptr %5, align 8, !tbaa !4
  store ptr %1, ptr %6, align 8, !tbaa !4
  store i8 %2, ptr %7, align 1, !tbaa !12
  call void @llvm.lifetime.start.p0(i64 8, ptr %8) #11
  call void @llvm.lifetime.start.p0(i64 8, ptr %9) #11
  %12 = load ptr, ptr %5, align 8, !tbaa !4
  store ptr %12, ptr %8, align 8, !tbaa !4
  br label %13

13:                                               ; preds = %135, %3
  %14 = load ptr, ptr %8, align 8, !tbaa !4
  %15 = icmp ne ptr %14, null
  br i1 %15, label %16, label %21

16:                                               ; preds = %13
  %17 = load ptr, ptr %8, align 8, !tbaa !4
  %18 = load i8, ptr %17, align 1, !tbaa !12
  %19 = sext i8 %18 to i32
  %20 = icmp ne i32 %19, 0
  br label %21

21:                                               ; preds = %16, %13
  %22 = phi i1 [ false, %13 ], [ %20, %16 ]
  br i1 %22, label %23, label %136

23:                                               ; preds = %21
  %24 = load ptr, ptr %6, align 8, !tbaa !4
  store ptr %24, ptr %9, align 8, !tbaa !4
  br label %25

25:                                               ; preds = %124, %23
  %26 = load ptr, ptr %9, align 8, !tbaa !4
  %27 = icmp ne ptr %26, null
  br i1 %27, label %28, label %33

28:                                               ; preds = %25
  %29 = load ptr, ptr %9, align 8, !tbaa !4
  %30 = load i8, ptr %29, align 1, !tbaa !12
  %31 = sext i8 %30 to i32
  %32 = icmp ne i32 %31, 0
  br label %33

33:                                               ; preds = %28, %25
  %34 = phi i1 [ false, %25 ], [ %32, %28 ]
  br i1 %34, label %35, label %125

35:                                               ; preds = %33
  call void @llvm.lifetime.start.p0(i64 4, ptr %10) #11
  store i32 0, ptr %10, align 4, !tbaa !16
  br label %36

36:                                               ; preds = %108, %35
  %37 = load ptr, ptr %8, align 8, !tbaa !4
  %38 = load i32, ptr %10, align 4, !tbaa !16
  %39 = sext i32 %38 to i64
  %40 = getelementptr inbounds i8, ptr %37, i64 %39
  %41 = load i8, ptr %40, align 1, !tbaa !12
  %42 = sext i8 %41 to i32
  %43 = load ptr, ptr %9, align 8, !tbaa !4
  %44 = load i32, ptr %10, align 4, !tbaa !16
  %45 = sext i32 %44 to i64
  %46 = getelementptr inbounds i8, ptr %43, i64 %45
  %47 = load i8, ptr %46, align 1, !tbaa !12
  %48 = sext i8 %47 to i32
  %49 = icmp eq i32 %42, %48
  br i1 %49, label %84, label %50

50:                                               ; preds = %36
  %51 = load ptr, ptr %8, align 8, !tbaa !4
  %52 = load i32, ptr %10, align 4, !tbaa !16
  %53 = sext i32 %52 to i64
  %54 = getelementptr inbounds i8, ptr %51, i64 %53
  %55 = load i8, ptr %54, align 1, !tbaa !12
  %56 = sext i8 %55 to i32
  %57 = load ptr, ptr %9, align 8, !tbaa !4
  %58 = load i32, ptr %10, align 4, !tbaa !16
  %59 = sext i32 %58 to i64
  %60 = getelementptr inbounds i8, ptr %57, i64 %59
  %61 = load i8, ptr %60, align 1, !tbaa !12
  %62 = sext i8 %61 to i32
  %63 = mul nsw i32 %56, %62
  %64 = icmp eq i32 %63, 0
  br i1 %64, label %65, label %82

65:                                               ; preds = %50
  %66 = load ptr, ptr %8, align 8, !tbaa !4
  %67 = load i32, ptr %10, align 4, !tbaa !16
  %68 = sext i32 %67 to i64
  %69 = getelementptr inbounds i8, ptr %66, i64 %68
  %70 = load i8, ptr %69, align 1, !tbaa !12
  %71 = sext i8 %70 to i32
  %72 = load ptr, ptr %9, align 8, !tbaa !4
  %73 = load i32, ptr %10, align 4, !tbaa !16
  %74 = sext i32 %73 to i64
  %75 = getelementptr inbounds i8, ptr %72, i64 %74
  %76 = load i8, ptr %75, align 1, !tbaa !12
  %77 = sext i8 %76 to i32
  %78 = add nsw i32 %71, %77
  %79 = load i8, ptr %7, align 1, !tbaa !12
  %80 = sext i8 %79 to i32
  %81 = icmp eq i32 %78, %80
  br label %82

82:                                               ; preds = %65, %50
  %83 = phi i1 [ false, %50 ], [ %81, %65 ]
  br label %84

84:                                               ; preds = %82, %36
  %85 = phi i1 [ true, %36 ], [ %83, %82 ]
  br i1 %85, label %86, label %111

86:                                               ; preds = %84
  %87 = load i32, ptr %10, align 4, !tbaa !16
  %88 = icmp ne i32 %87, 0
  br i1 %88, label %89, label %107

89:                                               ; preds = %86
  %90 = load ptr, ptr %8, align 8, !tbaa !4
  %91 = load i32, ptr %10, align 4, !tbaa !16
  %92 = sext i32 %91 to i64
  %93 = getelementptr inbounds i8, ptr %90, i64 %92
  %94 = load i8, ptr %93, align 1, !tbaa !12
  %95 = icmp ne i8 %94, 0
  br i1 %95, label %96, label %106

96:                                               ; preds = %89
  %97 = load ptr, ptr %8, align 8, !tbaa !4
  %98 = load i32, ptr %10, align 4, !tbaa !16
  %99 = sext i32 %98 to i64
  %100 = getelementptr inbounds i8, ptr %97, i64 %99
  %101 = load i8, ptr %100, align 1, !tbaa !12
  %102 = sext i8 %101 to i32
  %103 = load i8, ptr %7, align 1, !tbaa !12
  %104 = sext i8 %103 to i32
  %105 = icmp eq i32 %102, %104
  br i1 %105, label %106, label %107

106:                                              ; preds = %96, %89
  store i32 1, ptr %4, align 4
  store i32 1, ptr %11, align 4
  br label %122

107:                                              ; preds = %96, %86
  br label %108

108:                                              ; preds = %107
  %109 = load i32, ptr %10, align 4, !tbaa !16
  %110 = add nsw i32 %109, 1
  store i32 %110, ptr %10, align 4, !tbaa !16
  br label %36, !llvm.loop !38

111:                                              ; preds = %84
  %112 = load ptr, ptr %9, align 8, !tbaa !4
  %113 = load i8, ptr %7, align 1, !tbaa !12
  %114 = sext i8 %113 to i32
  %115 = call ptr @strchr(ptr noundef %112, i32 noundef %114) #12
  store ptr %115, ptr %9, align 8, !tbaa !4
  %116 = load ptr, ptr %9, align 8, !tbaa !4
  %117 = icmp ne ptr %116, null
  br i1 %117, label %118, label %121

118:                                              ; preds = %111
  %119 = load ptr, ptr %9, align 8, !tbaa !4
  %120 = getelementptr inbounds nuw i8, ptr %119, i32 1
  store ptr %120, ptr %9, align 8, !tbaa !4
  br label %121

121:                                              ; preds = %118, %111
  store i32 0, ptr %11, align 4
  br label %122

122:                                              ; preds = %121, %106
  call void @llvm.lifetime.end.p0(i64 4, ptr %10) #11
  %123 = load i32, ptr %11, align 4
  switch i32 %123, label %137 [
    i32 0, label %124
  ]

124:                                              ; preds = %122
  br label %25, !llvm.loop !39

125:                                              ; preds = %33
  %126 = load ptr, ptr %8, align 8, !tbaa !4
  %127 = load i8, ptr %7, align 1, !tbaa !12
  %128 = sext i8 %127 to i32
  %129 = call ptr @strchr(ptr noundef %126, i32 noundef %128) #12
  store ptr %129, ptr %8, align 8, !tbaa !4
  %130 = load ptr, ptr %8, align 8, !tbaa !4
  %131 = icmp ne ptr %130, null
  br i1 %131, label %132, label %135

132:                                              ; preds = %125
  %133 = load ptr, ptr %8, align 8, !tbaa !4
  %134 = getelementptr inbounds nuw i8, ptr %133, i32 1
  store ptr %134, ptr %8, align 8, !tbaa !4
  br label %135

135:                                              ; preds = %132, %125
  br label %13, !llvm.loop !40

136:                                              ; preds = %21
  store i32 0, ptr %4, align 4
  store i32 1, ptr %11, align 4
  br label %137

137:                                              ; preds = %136, %122
  call void @llvm.lifetime.end.p0(i64 8, ptr %9) #11
  call void @llvm.lifetime.end.p0(i64 8, ptr %8) #11
  %138 = load i32, ptr %4, align 4
  ret i32 %138
}