; Function Attrs: nofree norecurse nounwind memory(read, inaccessiblemem: none) uwtable
define range(i32 0, 2) i32 @av_match_list(ptr noundef readonly %0, ptr noundef readonly %1, i8 noundef signext %2) local_unnamed_addr #14 {
  %.not70 = icmp eq ptr %0, null
  br i1 %.not70, label %.critedge, label %.lr.ph72

.lr.ph72:                                         ; preds = %3
  %.not5668 = icmp eq ptr %1, null
  %4 = sext i8 %2 to i32
  br i1 %.not5668, label %.lr.ph72.split.us, label %.lr.ph72.split

.lr.ph72.split.us:                                ; preds = %.lr.ph72, %select.unfold65.preheader.us
  %.04371.us = phi ptr [ %7, %select.unfold65.preheader.us ], [ %0, %.lr.ph72 ]
  %5 = load i8, ptr %.04371.us, align 1, !tbaa !4
  %.not55.us = icmp eq i8 %5, 0
  br i1 %.not55.us, label %.critedge, label %select.unfold65.preheader.us

select.unfold65.preheader.us:                     ; preds = %.lr.ph72.split.us
  %6 = tail call ptr @strchr(ptr noundef nonnull dereferenceable(1) %.04371.us, i32 noundef %4) #18
  %.not58.us = icmp eq ptr %6, null
  %7 = getelementptr inbounds nuw i8, ptr %6, i64 1
  br i1 %.not58.us, label %.critedge, label %.lr.ph72.split.us

.lr.ph72.split:                                   ; preds = %.lr.ph72, %.critedge2
  %.04371 = phi ptr [ %27, %.critedge2 ], [ %0, %.lr.ph72 ]
  %8 = load i8, ptr %.04371, align 1, !tbaa !4
  %.not55 = icmp eq i8 %8, 0
  br i1 %.not55, label %.critedge, label %select.unfold65.preheader

select.unfold65.preheader:                        ; preds = %.lr.ph72.split, %select.unfold65
  %.04269 = phi ptr [ %25, %select.unfold65 ], [ %1, %.lr.ph72.split ]
  %9 = load i8, ptr %.04269, align 1, !tbaa !4
  %.not57 = icmp eq i8 %9, 0
  br i1 %.not57, label %.critedge2, label %.preheader

.preheader:                                       ; preds = %select.unfold65.preheader, %23
  %10 = phi i8 [ %.pre, %23 ], [ %9, %select.unfold65.preheader ]
  %indvars.iv = phi i64 [ %indvars.iv.next, %23 ], [ 0, %select.unfold65.preheader ]
  %11 = getelementptr inbounds nuw i8, ptr %.04371, i64 %indvars.iv
  %12 = load i8, ptr %11, align 1, !tbaa !4
  %13 = icmp eq i8 %12, %10
  br i1 %13, label %.critedge4, label %14

14:                                               ; preds = %.preheader
  %15 = sext i8 %10 to i32
  %16 = sext i8 %12 to i32
  %17 = mul nsw i32 %15, %16
  %18 = icmp eq i32 %17, 0
  %19 = add nsw i32 %15, %16
  %20 = icmp eq i32 %19, %4
  %or.cond74 = select i1 %18, i1 %20, i1 false
  br i1 %or.cond74, label %.critedge4, label %select.unfold65

.critedge4:                                       ; preds = %14, %.preheader
  %.not60 = icmp eq i64 %indvars.iv, 0
  br i1 %.not60, label %23, label %21

21:                                               ; preds = %.critedge4
  %.not61 = icmp eq i8 %12, 0
  %22 = icmp eq i8 %12, %2
  %or.cond = or i1 %.not61, %22
  br i1 %or.cond, label %.critedge, label %23

23:                                               ; preds = %21, %.critedge4
  %indvars.iv.next = add nuw nsw i64 %indvars.iv, 1
  %.phi.trans.insert = getelementptr inbounds nuw i8, ptr %.04269, i64 %indvars.iv.next
  %.pre = load i8, ptr %.phi.trans.insert, align 1, !tbaa !4
  br label %.preheader, !llvm.loop !29

select.unfold65:                                  ; preds = %14
  %24 = tail call ptr @strchr(ptr noundef nonnull dereferenceable(1) %.04269, i32 noundef %4) #18
  %.not59 = icmp eq ptr %24, null
  %25 = getelementptr inbounds nuw i8, ptr %24, i64 1
  br i1 %.not59, label %.critedge2, label %select.unfold65.preheader

.critedge2:                                       ; preds = %select.unfold65.preheader, %select.unfold65
  %26 = tail call ptr @strchr(ptr noundef nonnull dereferenceable(1) %.04371, i32 noundef %4) #18
  %.not58 = icmp eq ptr %26, null
  %27 = getelementptr inbounds nuw i8, ptr %26, i64 1
  br i1 %.not58, label %.critedge, label %.lr.ph72.split

.critedge:                                        ; preds = %.critedge2, %.lr.ph72.split, %21, %select.unfold65.preheader.us, %.lr.ph72.split.us, %3
  %.3 = phi i32 [ 0, %3 ], [ 0, %.lr.ph72.split.us ], [ 0, %select.unfold65.preheader.us ], [ 1, %21 ], [ 0, %.lr.ph72.split ], [ 0, %.critedge2 ]
  ret i32 %.3
}